; Function Attrs: nounwind uwtable
define void @b2Shape_GetFilter(ptr dead_on_unwind noalias writable writeonly sret(%struct.b2Filter) align 8 captures(none) initializes((0, 24)) %0, i64 %1) local_unnamed_addr #0 {
  %.sroa.2.0.extract.shift = lshr i64 %1, 32
  %3 = trunc nuw i64 %.sroa.2.0.extract.shift to i32
  %4 = and i32 %3, 65535
  %5 = tail call ptr @b2GetWorld(i32 noundef %4) #10
  %6 = getelementptr i8, ptr %5, i64 1256
  %.val = load ptr, ptr %6, align 8, !tbaa !14
  %7 = shl i64 %1, 32
  %sext.i = add i64 %7, -4294967296
  %8 = ashr exact i64 %sext.i, 32
  %9 = getelementptr inbounds %struct.b2Shape, ptr %.val, i64 %8, i32 16
  tail call void @llvm.memcpy.p0.p0.i64(ptr noundef nonnull align 8 dereferenceable(24) %0, ptr noundef nonnull align 8 dereferenceable(24) %9, i64 24, i1 false), !tbaa.struct !133
  ret void
}